; ModuleID = '57/2166.c'
source_filename = "57/2166.c"
target datalayout = "e-m:e-p270:32:32-p271:32:32-p272:64:64-i64:64-f80:128-n8:16:32:64-S128"
target triple = "x86_64-pc-linux-gnu"

@.str = private unnamed_addr constant [3 x i8] c"%d\00", align 1
@.str.1 = private unnamed_addr constant [3 x i8] c"%s\00", align 1
@.str.2 = private unnamed_addr constant [4 x i8] c"%s\0A\00", align 1

; Function Attrs: noinline nounwind uwtable
define dso_local void @doit(i8* %0) #0 {
  %2 = alloca i8*, align 8
  %3 = alloca i32, align 4
  store i8* %0, i8** %2, align 8
  %4 = load i8*, i8** %2, align 8
  %5 = call i64 @strlen(i8* %4) #3
  %6 = trunc i64 %5 to i32
  store i32 %6, i32* %3, align 4
  %7 = load i8*, i8** %2, align 8
  %8 = load i32, i32* %3, align 4
  %9 = sub nsw i32 %8, 1
  %10 = sext i32 %9 to i64
  %11 = getelementptr inbounds i8, i8* %7, i64 %10
  %12 = load i8, i8* %11, align 1
  %13 = sext i8 %12 to i32
  %14 = icmp eq i32 %13, 114
  br i1 %14, label %15, label %35

15:                                               ; preds = %1
  %16 = load i8*, i8** %2, align 8
  %17 = load i32, i32* %3, align 4
  %18 = sub nsw i32 %17, 2
  %19 = sext i32 %18 to i64
  %20 = getelementptr inbounds i8, i8* %16, i64 %19
  %21 = load i8, i8* %20, align 1
  %22 = sext i8 %21 to i32
  %23 = icmp eq i32 %22, 101
  br i1 %23, label %24, label %35

24:                                               ; preds = %15
  %25 = load i8*, i8** %2, align 8
  %26 = load i32, i32* %3, align 4
  %27 = sub nsw i32 %26, 2
  %28 = sext i32 %27 to i64
  %29 = getelementptr inbounds i8, i8* %25, i64 %28
  store i8 0, i8* %29, align 1
  %30 = load i8*, i8** %2, align 8
  %31 = load i32, i32* %3, align 4
  %32 = sub nsw i32 %31, 1
  %33 = sext i32 %32 to i64
  %34 = getelementptr inbounds i8, i8* %30, i64 %33
  store i8 0, i8* %34, align 1
  br label %35

35:                                               ; preds = %24, %15, %1
  %36 = load i8*, i8** %2, align 8
  %37 = load i32, i32* %3, align 4
  %38 = sub nsw i32 %37, 1
  %39 = sext i32 %38 to i64
  %40 = getelementptr inbounds i8, i8* %36, i64 %39
  %41 = load i8, i8* %40, align 1
  %42 = sext i8 %41 to i32
  %43 = icmp eq i32 %42, 121
  br i1 %43, label %44, label %64

44:                                               ; preds = %35
  %45 = load i8*, i8** %2, align 8
  %46 = load i32, i32* %3, align 4
  %47 = sub nsw i32 %46, 2
  %48 = sext i32 %47 to i64
  %49 = getelementptr inbounds i8, i8* %45, i64 %48
  %50 = load i8, i8* %49, align 1
  %51 = sext i8 %50 to i32
  %52 = icmp eq i32 %51, 108
  br i1 %52, label %53, label %64

53:                                               ; preds = %44
  %54 = load i8*, i8** %2, align 8
  %55 = load i32, i32* %3, align 4
  %56 = sub nsw i32 %55, 2
  %57 = sext i32 %56 to i64
  %58 = getelementptr inbounds i8, i8* %54, i64 %57
  store i8 0, i8* %58, align 1
  %59 = load i8*, i8** %2, align 8
  %60 = load i32, i32* %3, align 4
  %61 = sub nsw i32 %60, 1
  %62 = sext i32 %61 to i64
  %63 = getelementptr inbounds i8, i8* %59, i64 %62
  store i8 0, i8* %63, align 1
  br label %64

64:                                               ; preds = %53, %44, %35
  %65 = load i8*, i8** %2, align 8
  %66 = load i32, i32* %3, align 4
  %67 = sub nsw i32 %66, 1
  %68 = sext i32 %67 to i64
  %69 = getelementptr inbounds i8, i8* %65, i64 %68
  %70 = load i8, i8* %69, align 1
  %71 = sext i8 %70 to i32
  %72 = icmp eq i32 %71, 103
  br i1 %72, label %73, label %107

73:                                               ; preds = %64
  %74 = load i8*, i8** %2, align 8
  %75 = load i32, i32* %3, align 4
  %76 = sub nsw i32 %75, 2
  %77 = sext i32 %76 to i64
  %78 = getelementptr inbounds i8, i8* %74, i64 %77
  %79 = load i8, i8* %78, align 1
  %80 = sext i8 %79 to i32
  %81 = icmp eq i32 %80, 110
  br i1 %81, label %82, label %107

82:                                               ; preds = %73
  %83 = load i8*, i8** %2, align 8
  %84 = load i32, i32* %3, align 4
  %85 = sub nsw i32 %84, 3
  %86 = sext i32 %85 to i64
  %87 = getelementptr inbounds i8, i8* %83, i64 %86
  %88 = load i8, i8* %87, align 1
  %89 = sext i8 %88 to i32
  %90 = icmp eq i32 %89, 105
  br i1 %90, label %91, label %107

91:                                               ; preds = %82
  %92 = load i8*, i8** %2, align 8
  %93 = load i32, i32* %3, align 4
  %94 = sub nsw i32 %93, 3
  %95 = sext i32 %94 to i64
  %96 = getelementptr inbounds i8, i8* %92, i64 %95
  store i8 0, i8* %96, align 1
  %97 = load i8*, i8** %2, align 8
  %98 = load i32, i32* %3, align 4
  %99 = sub nsw i32 %98, 2
  %100 = sext i32 %99 to i64
  %101 = getelementptr inbounds i8, i8* %97, i64 %100
  store i8 0, i8* %101, align 1
  %102 = load i8*, i8** %2, align 8
  %103 = load i32, i32* %3, align 4
  %104 = sub nsw i32 %103, 1
  %105 = sext i32 %104 to i64
  %106 = getelementptr inbounds i8, i8* %102, i64 %105
  store i8 0, i8* %106, align 1
  br label %107

107:                                              ; preds = %91, %82, %73, %64
  ret void
}

; Function Attrs: nounwind readonly
declare dso_local i64 @strlen(i8*) #1

; Function Attrs: noinline nounwind uwtable
define dso_local void @main() #0 {
  %1 = alloca i32, align 4
  %2 = alloca i32, align 4
  %3 = alloca [50 x [10 x i8]], align 16
  %4 = call i32 (i8*, ...) @__isoc99_scanf(i8* getelementptr inbounds ([3 x i8], [3 x i8]* @.str, i64 0, i64 0), i32* %2)
  store i32 0, i32* %1, align 4
  br label %5

5:                                                ; preds = %15, %0
  %6 = load i32, i32* %1, align 4
  %7 = load i32, i32* %2, align 4
  %8 = icmp slt i32 %6, %7
  br i1 %8, label %9, label %18

9:                                                ; preds = %5
  %10 = load i32, i32* %1, align 4
  %11 = sext i32 %10 to i64
  %12 = getelementptr inbounds [50 x [10 x i8]], [50 x [10 x i8]]* %3, i64 0, i64 %11
  %13 = getelementptr inbounds [10 x i8], [10 x i8]* %12, i64 0, i64 0
  %14 = call i32 (i8*, ...) @__isoc99_scanf(i8* getelementptr inbounds ([3 x i8], [3 x i8]* @.str.1, i64 0, i64 0), i8* %13)
  br label %15

15:                                               ; preds = %9
  %16 = load i32, i32* %1, align 4
  %17 = add nsw i32 %16, 1
  store i32 %17, i32* %1, align 4
  br label %5

18:                                               ; preds = %5
  store i32 0, i32* %1, align 4
  br label %19

19:                                               ; preds = %33, %18
  %20 = load i32, i32* %1, align 4
  %21 = load i32, i32* %2, align 4
  %22 = icmp slt i32 %20, %21
  br i1 %22, label %23, label %36

23:                                               ; preds = %19
  %24 = load i32, i32* %1, align 4
  %25 = sext i32 %24 to i64
  %26 = getelementptr inbounds [50 x [10 x i8]], [50 x [10 x i8]]* %3, i64 0, i64 %25
  %27 = getelementptr inbounds [10 x i8], [10 x i8]* %26, i64 0, i64 0
  call void @doit(i8* %27)
  %28 = load i32, i32* %1, align 4
  %29 = sext i32 %28 to i64
  %30 = getelementptr inbounds [50 x [10 x i8]], [50 x [10 x i8]]* %3, i64 0, i64 %29
  %31 = getelementptr inbounds [10 x i8], [10 x i8]* %30, i64 0, i64 0
  %32 = call i32 (i8*, ...) @printf(i8* getelementptr inbounds ([4 x i8], [4 x i8]* @.str.2, i64 0, i64 0), i8* %31)
  br label %33

33:                                               ; preds = %23
  %34 = load i32, i32* %1, align 4
  %35 = add nsw i32 %34, 1
  store i32 %35, i32* %1, align 4
  br label %19

36:                                               ; preds = %19
  ret void
}

declare dso_local i32 @__isoc99_scanf(i8*, ...) #2

declare dso_local i32 @printf(i8*, ...) #2


!llvm.module.flags = !{!0}
!llvm.ident = !{!1}

!0 = !{i32 1, !"wchar_size", i32 4}
!1 = !{!"clang version 10.0.0-4ubuntu1 "}
